target datalayout = "e-m:e-p270:32:32-p271:32:32-p272:64:64-i64:64-i128:128-f80:128-n8:16:32:64-S128"
target triple = "x86_64-pc-linux-gnu"

%class.ClassLoaderStatsClosure = type { %class.CLDClosure, ptr, ptr, i64, i64, i64, i64 }
%class.CLDClosure = type { ptr }
%class.ClassLoaderStats = type { ptr, ptr, ptr, i64, i64, i64, i64, i64, i64 }
%class.oopDesc = type { %class.markWord, %"union.oopDesc::_metadata" }
%class.markWord = type { i64 }
%"union.oopDesc::_metadata" = type { ptr }

@.str = private unnamed_addr constant [49 x i8] c"0x%016lx  0x%016lx  0x%016lx  %6lu  %8lu  %8lu  \00", align 1
@.str.4 = private unnamed_addr constant [3 x i8] c"%s\00", align 1
@.str.5 = private unnamed_addr constant [20 x i8] c"<boot class loader>\00", align 1
@.str.6 = private unnamed_addr constant [81 x i8] c"%8s%8s%8s                                    %6lu  %8lu  %8lu   + hidden classes\00", align 1
@.str.7 = private unnamed_addr constant [1 x i8] zeroinitializer, align 1
@UseCompressedClassPointers = external global i8, align 1
@_ZN23CompressedKlassPointers5_baseE = external global ptr, align 8
@_ZN23CompressedKlassPointers6_shiftE = external global i32, align 4

; Function Attrs: mustprogress nounwind uwtable
define linkonce_odr hidden noundef ptr @_ZN23CompressedKlassPointers31decode_not_null_without_assertsEjPhi(i32 noundef %0, ptr noundef %1, i32 noundef %2) #1 comdat align 2 {
  %4 = alloca i32, align 4
  %5 = alloca ptr, align 8
  %6 = alloca i32, align 4
  store i32 %0, ptr %4, align 4
  store ptr %1, ptr %5, align 8
  store i32 %2, ptr %6, align 4
  %7 = load ptr, ptr %5, align 8
  %8 = ptrtoint ptr %7 to i64
  %9 = load i32, ptr %4, align 4
  %10 = zext i32 %9 to i64
  %11 = load i32, ptr %6, align 4
  %12 = zext i32 %11 to i64
  %13 = shl i64 %10, %12
  %14 = add i64 %8, %13
  %15 = inttoptr i64 %14 to ptr
  ret ptr %15
}

; Function Attrs: mustprogress nounwind uwtable
define linkonce_odr hidden noundef ptr @_ZN23CompressedKlassPointers15decode_not_nullEjPhi(i32 noundef %0, ptr noundef %1, i32 noundef %2) #1 comdat align 2 {
  %4 = alloca i32, align 4
  %5 = alloca ptr, align 8
  %6 = alloca i32, align 4
  %7 = alloca ptr, align 8
  store i32 %0, ptr %4, align 4
  store ptr %1, ptr %5, align 8
  store i32 %2, ptr %6, align 4
  %8 = load i32, ptr %4, align 4
  %9 = load ptr, ptr %5, align 8
  %10 = load i32, ptr %6, align 4
  %11 = call noundef ptr @_ZN23CompressedKlassPointers31decode_not_null_without_assertsEjPhi(i32 noundef %8, ptr noundef %9, i32 noundef %10)
  store ptr %11, ptr %7, align 8
  %12 = load ptr, ptr %7, align 8
  ret ptr %12
}

; Function Attrs: mustprogress nounwind uwtable
define linkonce_odr hidden noundef i32 @_ZN23CompressedKlassPointers5shiftEv() #1 comdat align 2 {
  %1 = load i32, ptr @_ZN23CompressedKlassPointers6_shiftE, align 4
  ret i32 %1
}

; Function Attrs: mustprogress nounwind uwtable
define linkonce_odr hidden noundef ptr @_ZN23CompressedKlassPointers4baseEv() #1 comdat align 2 {
  %1 = load ptr, ptr @_ZN23CompressedKlassPointers5_baseE, align 8
  ret ptr %1
}

; Function Attrs: mustprogress nounwind uwtable
define linkonce_odr hidden noundef ptr @_ZN23CompressedKlassPointers15decode_not_nullEj(i32 noundef %0) #1 comdat align 2 {
  %2 = alloca i32, align 4
  store i32 %0, ptr %2, align 4
  %3 = load i32, ptr %2, align 4
  %4 = call noundef ptr @_ZN23CompressedKlassPointers4baseEv()
  %5 = call noundef i32 @_ZN23CompressedKlassPointers5shiftEv()
  %6 = call noundef ptr @_ZN23CompressedKlassPointers15decode_not_nullEjPhi(i32 noundef %3, ptr noundef %4, i32 noundef %5)
  ret ptr %6
}

; Function Attrs: mustprogress nounwind uwtable
define linkonce_odr hidden noundef i64 @_Z3p2iPVKv(ptr noundef %0) #1 comdat {
  %2 = alloca ptr, align 8
  store ptr %0, ptr %2, align 8
  %3 = load ptr, ptr %2, align 8
  %4 = ptrtoint ptr %3 to i64
  ret i64 %4
}

; Function Attrs: mustprogress nounwind uwtable
define linkonce_odr hidden noundef ptr @_ZNK7oopDesc5klassEv(ptr noundef nonnull align 8 dereferenceable(16) %0) #1 comdat align 2 {
  %2 = alloca ptr, align 8
  %3 = alloca ptr, align 8
  store ptr %0, ptr %3, align 8
  %4 = load ptr, ptr %3, align 8
  %5 = load i8, ptr @UseCompressedClassPointers, align 1
  %6 = trunc i8 %5 to i1
  br i1 %6, label %7, label %11

7:                                                ; preds = %1
  %8 = getelementptr inbounds %class.oopDesc, ptr %4, i32 0, i32 1
  %9 = load i32, ptr %8, align 8
  %10 = call noundef ptr @_ZN23CompressedKlassPointers15decode_not_nullEj(i32 noundef %9)
  store ptr %10, ptr %2, align 8
  br label %14

11:                                               ; preds = %1
  %12 = getelementptr inbounds %class.oopDesc, ptr %4, i32 0, i32 1
  %13 = load ptr, ptr %12, align 8
  store ptr %13, ptr %2, align 8
  br label %14

14:                                               ; preds = %11, %7
  %15 = load ptr, ptr %2, align 8
  ret ptr %15
}

; Function Attrs: mustprogress nounwind uwtable
define hidden noundef zeroext i1 @_ZN23ClassLoaderStatsClosure8do_entryERKP7oopDescRK16ClassLoaderStats(ptr noundef nonnull align 8 dereferenceable(56) %0, ptr noundef nonnull align 8 dereferenceable(8) %1, ptr noundef nonnull align 8 dereferenceable(72) %2) unnamed_addr #1 align 2 {
  %4 = alloca ptr, align 8
  %5 = alloca ptr, align 8
  %6 = alloca ptr, align 8
  %7 = alloca ptr, align 8
  %8 = alloca ptr, align 8
  store ptr %0, ptr %4, align 8
  store ptr %1, ptr %5, align 8
  store ptr %2, ptr %6, align 8
  %9 = load ptr, ptr %4, align 8
  %10 = load ptr, ptr %6, align 8
  %11 = getelementptr inbounds %class.ClassLoaderStats, ptr %10, i32 0, i32 1
  %12 = load ptr, ptr %11, align 8
  %13 = icmp eq ptr %12, null
  br i1 %13, label %14, label %15

14:                                               ; preds = %3
  br label %20

15:                                               ; preds = %3
  %16 = load ptr, ptr %6, align 8
  %17 = getelementptr inbounds %class.ClassLoaderStats, ptr %16, i32 0, i32 1
  %18 = load ptr, ptr %17, align 8
  %19 = call noundef ptr @_ZNK7oopDesc5klassEv(ptr noundef nonnull align 8 dereferenceable(16) %18)
  br label %20

20:                                               ; preds = %15, %14
  %21 = phi ptr [ null, %14 ], [ %19, %15 ]
  store ptr %21, ptr %7, align 8
  %22 = load ptr, ptr %6, align 8
  %23 = getelementptr inbounds %class.ClassLoaderStats, ptr %22, i32 0, i32 2
  %24 = load ptr, ptr %23, align 8
  %25 = icmp eq ptr %24, null
  br i1 %25, label %26, label %27

26:                                               ; preds = %20
  br label %32

27:                                               ; preds = %20
  %28 = load ptr, ptr %6, align 8
  %29 = getelementptr inbounds %class.ClassLoaderStats, ptr %28, i32 0, i32 2
  %30 = load ptr, ptr %29, align 8
  %31 = call noundef ptr @_ZNK7oopDesc5klassEv(ptr noundef nonnull align 8 dereferenceable(16) %30)
  br label %32

32:                                               ; preds = %27, %26
  %33 = phi ptr [ null, %26 ], [ %31, %27 ]
  store ptr %33, ptr %8, align 8
  %34 = getelementptr inbounds %class.ClassLoaderStatsClosure, ptr %9, i32 0, i32 1
  %35 = load ptr, ptr %34, align 8
  %36 = load ptr, ptr %7, align 8
  %37 = call noundef i64 @_Z3p2iPVKv(ptr noundef %36)
  %38 = load ptr, ptr %8, align 8
  %39 = call noundef i64 @_Z3p2iPVKv(ptr noundef %38)
  %40 = load ptr, ptr %6, align 8
  %41 = getelementptr inbounds %class.ClassLoaderStats, ptr %40, i32 0, i32 0
  %42 = load ptr, ptr %41, align 8
  %43 = call noundef i64 @_Z3p2iPVKv(ptr noundef %42)
  %44 = load ptr, ptr %6, align 8
  %45 = getelementptr inbounds %class.ClassLoaderStats, ptr %44, i32 0, i32 5
  %46 = load i64, ptr %45, align 8
  %47 = load ptr, ptr %6, align 8
  %48 = getelementptr inbounds %class.ClassLoaderStats, ptr %47, i32 0, i32 3
  %49 = load i64, ptr %48, align 8
  %50 = load ptr, ptr %6, align 8
  %51 = getelementptr inbounds %class.ClassLoaderStats, ptr %50, i32 0, i32 4
  %52 = load i64, ptr %51, align 8
  call void (ptr, ptr, ...) @_ZN12outputStream5printEPKcz(ptr noundef nonnull align 8 dereferenceable(56) %35, ptr noundef @.str, i64 noundef %37, i64 noundef %39, i64 noundef %43, i64 noundef %46, i64 noundef %49, i64 noundef %52)
  %53 = load ptr, ptr %7, align 8
  %54 = icmp ne ptr %53, null
  br i1 %54, label %55, label %60

55:                                               ; preds = %32
  %56 = getelementptr inbounds %class.ClassLoaderStatsClosure, ptr %9, i32 0, i32 1
  %57 = load ptr, ptr %56, align 8
  %58 = load ptr, ptr %7, align 8
  %59 = call noundef ptr @_ZNK5Klass13external_nameEv(ptr noundef nonnull align 8 dereferenceable(196) %58)
  call void (ptr, ptr, ...) @_ZN12outputStream5printEPKcz(ptr noundef nonnull align 8 dereferenceable(56) %57, ptr noundef @.str.4, ptr noundef %59)
  br label %63

60:                                               ; preds = %32
  %61 = getelementptr inbounds %class.ClassLoaderStatsClosure, ptr %9, i32 0, i32 1
  %62 = load ptr, ptr %61, align 8
  call void (ptr, ptr, ...) @_ZN12outputStream5printEPKcz(ptr noundef nonnull align 8 dereferenceable(56) %62, ptr noundef @.str.5)
  br label %63

63:                                               ; preds = %60, %55
  %64 = getelementptr inbounds %class.ClassLoaderStatsClosure, ptr %9, i32 0, i32 1
  %65 = load ptr, ptr %64, align 8
  call void @_ZN12outputStream2crEv(ptr noundef nonnull align 8 dereferenceable(56) %65)
  %66 = load ptr, ptr %6, align 8
  %67 = getelementptr inbounds %class.ClassLoaderStats, ptr %66, i32 0, i32 8
  %68 = load i64, ptr %67, align 8
  %69 = icmp ugt i64 %68, 0
  br i1 %69, label %70, label %82

70:                                               ; preds = %63
  %71 = getelementptr inbounds %class.ClassLoaderStatsClosure, ptr %9, i32 0, i32 1
  %72 = load ptr, ptr %71, align 8
  %73 = load ptr, ptr %6, align 8
  %74 = getelementptr inbounds %class.ClassLoaderStats, ptr %73, i32 0, i32 8
  %75 = load i64, ptr %74, align 8
  %76 = load ptr, ptr %6, align 8
  %77 = getelementptr inbounds %class.ClassLoaderStats, ptr %76, i32 0, i32 6
  %78 = load i64, ptr %77, align 8
  %79 = load ptr, ptr %6, align 8
  %80 = getelementptr inbounds %class.ClassLoaderStats, ptr %79, i32 0, i32 7
  %81 = load i64, ptr %80, align 8
  call void (ptr, ptr, ...) @_ZN12outputStream8print_crEPKcz(ptr noundef nonnull align 8 dereferenceable(56) %72, ptr noundef @.str.6, ptr noundef @.str.7, ptr noundef @.str.7, ptr noundef @.str.7, i64 noundef %75, i64 noundef %78, i64 noundef %81)
  br label %82

82:                                               ; preds = %70, %63
  ret i1 true
}