; Function Attrs: mustprogress nounwind uwtable
define hidden noundef zeroext i1 @_ZN23ClassLoaderStatsClosure8do_entryERKP7oopDescRK16ClassLoaderStats(ptr nocapture noundef nonnull readonly align 8 dereferenceable(56) %0, ptr nocapture nonnull readnone align 8 %1, ptr nocapture noundef nonnull readonly align 8 dereferenceable(72) %2) unnamed_addr #0 align 2 {
  %4 = getelementptr inbounds i8, ptr %2, i64 8
  %5 = load ptr, ptr %4, align 8
  %6 = icmp eq ptr %5, null
  br i1 %6, label %_ZNK7oopDesc5klassEv.exit, label %7

7:                                                ; preds = %3
  %8 = load i8, ptr @UseCompressedClassPointers, align 1
  %9 = trunc i8 %8 to i1
  %10 = getelementptr inbounds i8, ptr %5, i64 8
  br i1 %9, label %11, label %21

11:                                               ; preds = %7
  %12 = load i32, ptr %10, align 8
  %13 = load ptr, ptr @_ZN23CompressedKlassPointers5_baseE, align 8
  %14 = load i32, ptr @_ZN23CompressedKlassPointers6_shiftE, align 4
  %15 = ptrtoint ptr %13 to i64
  %16 = zext i32 %12 to i64
  %17 = zext nneg i32 %14 to i64
  %18 = shl i64 %16, %17
  %19 = add i64 %18, %15
  %20 = inttoptr i64 %19 to ptr
  br label %_ZNK7oopDesc5klassEv.exit

21:                                               ; preds = %7
  %22 = load ptr, ptr %10, align 8
  br label %_ZNK7oopDesc5klassEv.exit

_ZNK7oopDesc5klassEv.exit:                        ; preds = %21, %11, %3
  %23 = phi ptr [ null, %3 ], [ %20, %11 ], [ %22, %21 ]
  %24 = getelementptr inbounds i8, ptr %2, i64 16
  %25 = load ptr, ptr %24, align 8
  %26 = icmp eq ptr %25, null
  br i1 %26, label %_ZNK7oopDesc5klassEv.exit22, label %27

27:                                               ; preds = %_ZNK7oopDesc5klassEv.exit
  %28 = load i8, ptr @UseCompressedClassPointers, align 1
  %29 = trunc i8 %28 to i1
  %30 = getelementptr inbounds i8, ptr %25, i64 8
  br i1 %29, label %31, label %40

31:                                               ; preds = %27
  %32 = load i32, ptr %30, align 8
  %33 = load ptr, ptr @_ZN23CompressedKlassPointers5_baseE, align 8
  %34 = load i32, ptr @_ZN23CompressedKlassPointers6_shiftE, align 4
  %35 = ptrtoint ptr %33 to i64
  %36 = zext i32 %32 to i64
  %37 = zext nneg i32 %34 to i64
  %38 = shl i64 %36, %37
  %39 = add i64 %38, %35
  br label %_ZNK7oopDesc5klassEv.exit22

40:                                               ; preds = %27
  %41 = load ptr, ptr %30, align 8
  %42 = ptrtoint ptr %41 to i64
  br label %_ZNK7oopDesc5klassEv.exit22

_ZNK7oopDesc5klassEv.exit22:                      ; preds = %40, %31, %_ZNK7oopDesc5klassEv.exit
  %43 = phi i64 [ 0, %_ZNK7oopDesc5klassEv.exit ], [ %39, %31 ], [ %42, %40 ]
  %44 = getelementptr inbounds i8, ptr %0, i64 8
  %45 = load ptr, ptr %44, align 8
  %46 = ptrtoint ptr %23 to i64
  %47 = load ptr, ptr %2, align 8
  %48 = ptrtoint ptr %47 to i64
  %49 = getelementptr inbounds i8, ptr %2, i64 40
  %50 = load i64, ptr %49, align 8
  %51 = getelementptr inbounds i8, ptr %2, i64 24
  %52 = load i64, ptr %51, align 8
  %53 = getelementptr inbounds i8, ptr %2, i64 32
  %54 = load i64, ptr %53, align 8
  tail call void (ptr, ptr, ...) @_ZN12outputStream5printEPKcz(ptr noundef nonnull align 8 dereferenceable(56) %45, ptr noundef nonnull @.str, i64 noundef %46, i64 noundef %43, i64 noundef %48, i64 noundef %50, i64 noundef %52, i64 noundef %54) #7
  %.not = icmp eq ptr %23, null
  %55 = load ptr, ptr %44, align 8
  br i1 %.not, label %58, label %56

56:                                               ; preds = %_ZNK7oopDesc5klassEv.exit22
  %57 = tail call noundef ptr @_ZNK5Klass13external_nameEv(ptr noundef nonnull align 8 dereferenceable(196) %23) #7
  tail call void (ptr, ptr, ...) @_ZN12outputStream5printEPKcz(ptr noundef nonnull align 8 dereferenceable(56) %55, ptr noundef nonnull @.str.4, ptr noundef %57) #7
  br label %59

58:                                               ; preds = %_ZNK7oopDesc5klassEv.exit22
  tail call void (ptr, ptr, ...) @_ZN12outputStream5printEPKcz(ptr noundef nonnull align 8 dereferenceable(56) %55, ptr noundef nonnull @.str.5) #7
  br label %59

59:                                               ; preds = %58, %56
  %60 = load ptr, ptr %44, align 8
  tail call void @_ZN12outputStream2crEv(ptr noundef nonnull align 8 dereferenceable(56) %60) #7
  %61 = getelementptr inbounds i8, ptr %2, i64 64
  %62 = load i64, ptr %61, align 8
  %.not20 = icmp eq i64 %62, 0
  br i1 %.not20, label %69, label %63

63:                                               ; preds = %59
  %64 = load ptr, ptr %44, align 8
  %65 = getelementptr inbounds i8, ptr %2, i64 48
  %66 = load i64, ptr %65, align 8
  %67 = getelementptr inbounds i8, ptr %2, i64 56
  %68 = load i64, ptr %67, align 8
  tail call void (ptr, ptr, ...) @_ZN12outputStream8print_crEPKcz(ptr noundef nonnull align 8 dereferenceable(56) %64, ptr noundef nonnull @.str.6, ptr noundef nonnull @.str.7, ptr noundef nonnull @.str.7, ptr noundef nonnull @.str.7, i64 noundef %62, i64 noundef %66, i64 noundef %68) #7
  br label %69

69:                                               ; preds = %63, %59
  ret i1 true
}